target datalayout = "e-m:e-p270:32:32-p271:32:32-p272:64:64-i64:64-i128:128-f80:128-n8:16:32:64-S128"
target triple = "x86_64-pc-linux-gnu"

%"struct.opt::model_based_opt::def" = type { i32, i32 }
%"struct.opt::model_based_opt::mul_def" = type { %"struct.opt::model_based_opt::def", ptr, ptr }

; Function Attrs: mustprogress nounwind uwtable
define linkonce_odr hidden void @_ZN3opt15model_based_opt3def7inc_refEv(ptr noundef nonnull align 4 dereferenceable(8) %0) #7 comdat align 2 {
  %2 = alloca ptr, align 8
  store ptr %0, ptr %2, align 8, !tbaa !35
  %3 = load ptr, ptr %2, align 8
  %4 = getelementptr inbounds nuw %"struct.opt::model_based_opt::def", ptr %3, i32 0, i32 1
  %5 = load i32, ptr %4, align 4, !tbaa !49
  %6 = add i32 %5, 1
  store i32 %6, ptr %4, align 4, !tbaa !49
  ret void
}

; Function Attrs: mustprogress nounwind uwtable
define linkonce_odr hidden void @_ZN3opt15model_based_opt3defC2Ev(ptr noundef nonnull align 4 dereferenceable(8) %0) unnamed_addr #7 comdat align 2 {
  %2 = alloca ptr, align 8
  store ptr %0, ptr %2, align 8, !tbaa !35
  %3 = load ptr, ptr %2, align 8
  %4 = getelementptr inbounds nuw %"struct.opt::model_based_opt::def", ptr %3, i32 0, i32 1
  store i32 0, ptr %4, align 4, !tbaa !49
  ret void
}

; Function Attrs: mustprogress nounwind uwtable
define linkonce_odr hidden void @_ZN3opt15model_based_opt7mul_defC2EPNS0_3defES3_(ptr noundef nonnull align 8 dereferenceable(24) %0, ptr noundef %1, ptr noundef %2) unnamed_addr #7 comdat align 2 {
  %4 = alloca ptr, align 8
  %5 = alloca ptr, align 8
  %6 = alloca ptr, align 8
  store ptr %0, ptr %4, align 8, !tbaa !55
  store ptr %1, ptr %5, align 8, !tbaa !35
  store ptr %2, ptr %6, align 8, !tbaa !35
  %7 = load ptr, ptr %4, align 8
  call void @_ZN3opt15model_based_opt3defC2Ev(ptr noundef nonnull align 4 dereferenceable(8) %7) #3
  %8 = getelementptr inbounds nuw %"struct.opt::model_based_opt::mul_def", ptr %7, i32 0, i32 1
  %9 = load ptr, ptr %5, align 8, !tbaa !35
  store ptr %9, ptr %8, align 8, !tbaa !57
  %10 = getelementptr inbounds nuw %"struct.opt::model_based_opt::mul_def", ptr %7, i32 0, i32 2
  %11 = load ptr, ptr %6, align 8, !tbaa !35
  store ptr %11, ptr %10, align 8, !tbaa !59
  %12 = getelementptr inbounds nuw %"struct.opt::model_based_opt::def", ptr %7, i32 0, i32 0
  store i32 1, ptr %12, align 8, !tbaa !44
  %13 = load ptr, ptr %5, align 8, !tbaa !35
  call void @_ZN3opt15model_based_opt3def7inc_refEv(ptr noundef nonnull align 4 dereferenceable(8) %13)
  %14 = load ptr, ptr %6, align 8, !tbaa !35
  call void @_ZN3opt15model_based_opt3def7inc_refEv(ptr noundef nonnull align 4 dereferenceable(8) %14)
  ret void
}

; Function Attrs: mustprogress uwtable
define hidden noundef ptr @_ZN3opt15model_based_opt3defmlERS1_(ptr noundef nonnull align 4 dereferenceable(8) %0, ptr noundef nonnull align 4 dereferenceable(8) %1) #4 align 2 {
  %3 = alloca ptr, align 8
  %4 = alloca ptr, align 8
  store ptr %0, ptr %3, align 8, !tbaa !35
  store ptr %1, ptr %4, align 8, !tbaa !35
  %5 = load ptr, ptr %3, align 8
  %6 = call noalias noundef ptr @_ZN6memory8allocateEm(i64 noundef 24)
  %7 = load ptr, ptr %4, align 8, !tbaa !35
  call void @_ZN3opt15model_based_opt7mul_defC2EPNS0_3defES3_(ptr noundef nonnull align 8 dereferenceable(24) %6, ptr noundef %5, ptr noundef %7)
  ret ptr %6
}