; Function Attrs: mustprogress uwtable
define hidden noalias noundef ptr @_ZN3opt15model_based_opt3defmlERS1_(ptr noundef nonnull align 4 dereferenceable(8) %0, ptr noundef nonnull align 4 dereferenceable(8) %1) local_unnamed_addr #3 align 2 {
  %3 = tail call noalias noundef ptr @_ZN6memory8allocateEm(i64 noundef 24)
  %4 = getelementptr inbounds nuw i8, ptr %3, i64 4
  store i32 0, ptr %4, align 4, !tbaa !38
  %5 = getelementptr inbounds nuw i8, ptr %3, i64 8
  store ptr %0, ptr %5, align 8, !tbaa !48
  %6 = getelementptr inbounds nuw i8, ptr %3, i64 16
  store ptr %1, ptr %6, align 8, !tbaa !50
  store i32 1, ptr %3, align 8, !tbaa !41
  %7 = getelementptr inbounds nuw i8, ptr %0, i64 4
  %8 = load i32, ptr %7, align 4, !tbaa !38
  %9 = add i32 %8, 1
  store i32 %9, ptr %7, align 4, !tbaa !38
  %10 = getelementptr inbounds nuw i8, ptr %1, i64 4
  %11 = load i32, ptr %10, align 4, !tbaa !38
  %12 = add i32 %11, 1
  store i32 %12, ptr %10, align 4, !tbaa !38
  ret ptr %3
}